; Function Attrs: nounwind uwtable
define internal void @mac_freectx(ptr noundef %0) #0 {
  %2 = getelementptr inbounds nuw i8, ptr %0, i64 8
  %3 = load ptr, ptr %2, align 8, !tbaa !25
  tail call void @CRYPTO_free(ptr noundef %3, ptr noundef nonnull @.str.1, i32 noundef 166) #3
  %4 = getelementptr inbounds nuw i8, ptr %0, i64 24
  %5 = load ptr, ptr %4, align 8, !tbaa !21
  tail call void @EVP_MAC_CTX_free(ptr noundef %5) #3
  %6 = getelementptr inbounds nuw i8, ptr %0, i64 16
  %7 = load ptr, ptr %6, align 8, !tbaa !3
  tail call void @ossl_mac_key_free(ptr noundef %7) #3
  tail call void @CRYPTO_free(ptr noundef %0, ptr noundef nonnull @.str.1, i32 noundef 169) #3
  ret void
}